(dp0
S'Submit date'
p1
S'1999/09/21, 06:07:43'
p2
sS'Submitter email'
p3
S'http://www.perl.com'
p4
sS'Description'
p5
S'Tcl rules!\015\012          '
p6
sS'Submit mode'
p7
S''
p8
sS'Report state'
p9
S'Not yet verified'
p10
sS'Submitter name'
p11
S'tom'
p12
s.