(dp0
S'Submit date'
p1
S'1999/09/21, 06:11:08'
p2
sS'Submitter email'
p3
S'eatmore@spam.com'
p4
sS'Description'
p5
S'This is the worst book I ever read.\015\012You suck!\015\012\015\012          '
p6
sS'Submit mode'
p7
S''
p8
sS'Report state'
p9
S'Not yet verified'
p10
sS'Submitter name'
p11
S'anonymous perl coward'
p12
s.