(dp0
S'Submit date'
p1
S'1999/09/21, 06:07:22'
p2
sS'Report state'
p3
S'Rejected - not a real bug'
p4
sS'Submitter name'
p5
S'sue'
p6
sS'Submitter email'
p7
S'sue@me.com'
p8
sS'Description'
p9
S"Reject reason: No it doesn't\012\012[Original description=>]\012Perl rules!\015\012          "
p10
sS'Submit mode'
p11
S''
p12
s.