(dp0
S'Submit date'
p1
S'1999/09/21, 06:13:31'
p2
sS'Submitter email'
p3
S''
p4
sS'Description'
p5
S'Help!  I just spilled coffee all over\015\012my computer.  Can you help me?  I have\015\012installed Python 1.5.2.\015\012          '
p6
sS'Submit mode'
p7
g4
sS'Report state'
p8
S'Not yet verified'
p9
sS'Submitter name'
p10
g4
s.