(dp0
S'Submit date'
p1
S'1999/09/21, 16:43:19'
p2
sS'Submitter email'
p3
S''
p4
sS'Description'
p5
S'Giv me ur pYthon if U evr\015\012want to C yur litle dogy agen!\015\012'
p6
sS'Submit mode'
p7
g4
sS'Report state'
p8
S'Not yet verified'
p9
sS'Submitter name'
p10
S'language terrorist'
p11
s.