(dp0
S'Submit date'
p1
S'1999/09/21, 06:10:22'
p2
sS'Submitter email'
p3
S''
p4
sS'Description'
p5
S'This is the best book I ever read.\015\012You rock!\015\012\015\012          '
p6
sS'Submit mode'
p7
g4
sS'Report state'
p8
S'Not yet verified'
p9
sS'Submitter name'
p10
S'Python dude'
p11
s.