(dp0
S'Submit date'
p1
S'1999/09/21, 06:06:50'
p2
sS'Report state'
p3
S'Verified by author'
p4
sS'Submitter name'
p5
S'bob'
p6
sS'Submitter email'
p7
S'bob@bob.com'
p8
sS'Description'
p9
S'Python rules!\015\012          '
p10
sS'Submit mode'
p11
S''
p12
s.