(dp0
S'Page number'
p1
S'42'
p2
sS'Type'
p3
S'Typo'
p4
sS'Printing Date'
p5
S''
p6
sS'Chapter number'
p7
S'3'
p8
sS'Submit date'
p9
S'1999/09/21, 05:59:16'
p10
sS'Report state'
p11
S'Verified by author'
p12
sS'Submitter name'
p13
g6
sS'Submitter email'
p14
g6
sS'Description'
p15
S"Middle of page: 'aint' aint a real word.\015\012\015\012          "
p16
sS'Submit mode'
p17
g6
sS'Part number'
p18
g6
sS'Severity'
p19
S'Low'
p20
s.