(dp0
S'Page number'
p1
S'cover'
p2
sS'Description'
p3
S'Why did it have to be snakes!\015\012          '
p4
sS'Type'
p5
S'Suggestion'
p6
sS'Chapter number'
p7
S''
p8
sS'Submit date'
p9
S'1999/09/21, 06:47:07'
p10
sS'Report state'
p11
S'Not yet verified'
p12
sS'Submitter name'
p13
S'Indiana J.'
p14
sS'Submitter email'
p15
g8
sS'Severity'
p16
S'Medium'
p17
sS'Submit mode'
p18
g8
sS'Part number'
p19
g8
sS'Printing Date'
p20
g8
s.