(dp0
S'Page number'
p1
S''
p2
sS'Description'
p3
S'Help! I just spilled coffee all over my\015\012computer...\015\012          '
p4
sS'Type'
p5
S'Program bug'
p6
sS'Chapter number'
p7
S'16'
p8
sS'Submit date'
p9
S'1999/09/21, 06:20:22'
p10
sS'Report state'
p11
S'Not yet verified'
p12
sS'Submitter name'
p13
S'jerry'
p14
sS'Submitter email'
p15
S'http://www.jerry.com'
p16
sS'Severity'
p17
S'Unknown'
p18
sS'Submit mode'
p19
g2
sS'Part number'
p20
g2
sS'Printing Date'
p21
g2
s.